; Function Attrs: mustprogress nofree norecurse nosync nounwind willreturn memory(argmem: read) uwtable
define internal noundef i32 @_ZN2cv12cpu_baselineL15countNonZero32sEPKii(ptr nocapture noundef readonly %0, i32 noundef %1) #1 {
  %3 = icmp sgt i32 %1, 0
  br i1 %3, label %.lr.ph.preheader.i, label %_ZN2cv12cpu_baselineL13countNonZero_IiEEiPKT_i.exit

.lr.ph.preheader.i:                               ; preds = %2
  %wide.trip.count.i = zext nneg i32 %1 to i64
  br label %.lr.ph.i

.lr.ph.i:                                         ; preds = %.lr.ph.i, %.lr.ph.preheader.i
  %indvars.iv.i = phi i64 [ 0, %.lr.ph.preheader.i ], [ %indvars.iv.next.i, %.lr.ph.i ]
  %.08.i = phi i32 [ 0, %.lr.ph.preheader.i ], [ %8, %.lr.ph.i ]
  %4 = getelementptr inbounds i32, ptr %0, i64 %indvars.iv.i
  %5 = load i32, ptr %4, align 4
  %6 = icmp ne i32 %5, 0
  %7 = zext i1 %6 to i32
  %8 = add nuw nsw i32 %.08.i, %7
  %indvars.iv.next.i = add nuw nsw i64 %indvars.iv.i, 1
  %exitcond.not.i = icmp eq i64 %indvars.iv.next.i, %wide.trip.count.i
  br i1 %exitcond.not.i, label %_ZN2cv12cpu_baselineL13countNonZero_IiEEiPKT_i.exit, label %.lr.ph.i, !llvm.loop !7

_ZN2cv12cpu_baselineL13countNonZero_IiEEiPKT_i.exit: ; preds = %.lr.ph.i, %2
  %.0.lcssa.i = phi i32 [ 0, %2 ], [ %8, %.lr.ph.i ]
  ret i32 %.0.lcssa.i
}